; Function Attrs: mustprogress nounwind uwtable
define hidden void @_ZN25ShenandoahMetricsSnapshot11snap_beforeEv(ptr nocapture noundef nonnull align 8 dereferenceable(56) %0) local_unnamed_addr #1 align 2 {
  %2 = load ptr, ptr %0, align 8
  %3 = load ptr, ptr %2, align 8
  %4 = getelementptr inbounds i8, ptr %3, i64 96
  %5 = load ptr, ptr %4, align 8
  %6 = tail call noundef i64 %5(ptr noundef nonnull align 8 dereferenceable(2657) %2) #6
  %7 = getelementptr inbounds i8, ptr %0, i64 8
  store i64 %6, ptr %7, align 8
  %8 = load ptr, ptr %0, align 8
  %9 = getelementptr inbounds i8, ptr %8, i64 1656
  %10 = load ptr, ptr %9, align 8
  %11 = tail call noundef double @_ZN17ShenandoahFreeSet22internal_fragmentationEv(ptr noundef nonnull align 8 dereferenceable(224) %10) #6
  %12 = getelementptr inbounds i8, ptr %0, i64 24
  store double %11, ptr %12, align 8
  %13 = load ptr, ptr %0, align 8
  %14 = getelementptr inbounds i8, ptr %13, i64 1656
  %15 = load ptr, ptr %14, align 8
  %16 = tail call noundef double @_ZN17ShenandoahFreeSet22external_fragmentationEv(ptr noundef nonnull align 8 dereferenceable(224) %15) #6
  %17 = getelementptr inbounds i8, ptr %0, i64 40
  store double %16, ptr %17, align 8
  ret void
}